; Function Attrs: mustprogress uwtable
define void @cvReleaseSparseMat(ptr noundef %0) local_unnamed_addr #0 personality ptr @__gxx_personality_v0 {
  %2 = alloca %"class.std::__cxx11::basic_string", align 8
  %3 = alloca %"class.std::allocator", align 1
  %4 = alloca %"class.std::__cxx11::basic_string", align 8
  %5 = alloca %"class.std::allocator", align 1
  %6 = alloca ptr, align 8
  %.not = icmp eq ptr %0, null
  br i1 %.not, label %7, label %20

7:                                                ; preds = %1
  call void @llvm.lifetime.start.p0(i64 32, ptr nonnull %2) #12
  call void @llvm.lifetime.start.p0(i64 1, ptr nonnull %3) #12
  invoke void @_ZNSt7__cxx1112basic_stringIcSt11char_traitsIcESaIcEEC2EPKcRKS3_(ptr noundef nonnull align 8 dereferenceable(32) %2, ptr noundef nonnull @.str.4, ptr noundef nonnull align 1 dereferenceable(1) %3)
          to label %8 unwind label %10

8:                                                ; preds = %7
  invoke void @_ZN2cv5errorEiRKNSt7__cxx1112basic_stringIcSt11char_traitsIcESaIcEEEPKcS9_i(i32 noundef -9, ptr noundef nonnull align 8 dereferenceable(32) %2, ptr noundef nonnull @__func__.cvReleaseSparseMat, ptr noundef nonnull @.str.1, i32 noundef 583) #13
          to label %9 unwind label %12

9:                                                ; preds = %8
  unreachable

10:                                               ; preds = %7
  %11 = landingpad { ptr, i32 }
          cleanup
  br label %_ZNSt7__cxx1112basic_stringIcSt11char_traitsIcESaIcEED2Ev.exit

12:                                               ; preds = %8
  %13 = landingpad { ptr, i32 }
          cleanup
  %14 = load ptr, ptr %2, align 8, !tbaa !3
  %15 = getelementptr inbounds nuw i8, ptr %2, i64 16
  %16 = icmp eq ptr %14, %15
  br i1 %16, label %_ZNKSt7__cxx1112basic_stringIcSt11char_traitsIcESaIcEE11_M_is_localEv.exit.thread.i.i, label %_ZNKSt7__cxx1112basic_stringIcSt11char_traitsIcESaIcEE11_M_is_localEv.exit.i.i

_ZNKSt7__cxx1112basic_stringIcSt11char_traitsIcESaIcEE11_M_is_localEv.exit.thread.i.i: ; preds = %12
  %17 = getelementptr inbounds nuw i8, ptr %2, i64 8
  %18 = load i64, ptr %17, align 8, !tbaa !11
  %19 = icmp ult i64 %18, 16
  call void @llvm.assume(i1 %19)
  br label %_ZNSt7__cxx1112basic_stringIcSt11char_traitsIcESaIcEED2Ev.exit

_ZNKSt7__cxx1112basic_stringIcSt11char_traitsIcESaIcEE11_M_is_localEv.exit.i.i: ; preds = %12
  call void @_ZdlPv(ptr noundef %14) #14
  br label %_ZNSt7__cxx1112basic_stringIcSt11char_traitsIcESaIcEED2Ev.exit

_ZNSt7__cxx1112basic_stringIcSt11char_traitsIcESaIcEED2Ev.exit: ; preds = %_ZNKSt7__cxx1112basic_stringIcSt11char_traitsIcESaIcEE11_M_is_localEv.exit.i.i, %_ZNKSt7__cxx1112basic_stringIcSt11char_traitsIcESaIcEE11_M_is_localEv.exit.thread.i.i, %10
  %.pn = phi { ptr, i32 } [ %11, %10 ], [ %13, %_ZNKSt7__cxx1112basic_stringIcSt11char_traitsIcESaIcEE11_M_is_localEv.exit.thread.i.i ], [ %13, %_ZNKSt7__cxx1112basic_stringIcSt11char_traitsIcESaIcEE11_M_is_localEv.exit.i.i ]
  call void @llvm.lifetime.end.p0(i64 1, ptr nonnull %3) #12
  call void @llvm.lifetime.end.p0(i64 32, ptr nonnull %2) #12
  br label %47

20:                                               ; preds = %1
  %21 = load ptr, ptr %0, align 8, !tbaa !92
  %.not17 = icmp eq ptr %21, null
  br i1 %.not17, label %46, label %22

22:                                               ; preds = %20
  %23 = load i32, ptr %21, align 8, !tbaa !80
  %24 = and i32 %23, -65536
  %25 = icmp eq i32 %24, 1111752704
  br i1 %25, label %39, label %26

26:                                               ; preds = %22
  call void @llvm.lifetime.start.p0(i64 32, ptr nonnull %4) #12
  call void @llvm.lifetime.start.p0(i64 1, ptr nonnull %5) #12
  invoke void @_ZNSt7__cxx1112basic_stringIcSt11char_traitsIcESaIcEEC2EPKcRKS3_(ptr noundef nonnull align 8 dereferenceable(32) %4, ptr noundef nonnull @.str.4, ptr noundef nonnull align 1 dereferenceable(1) %5)
          to label %27 unwind label %29

27:                                               ; preds = %26
  invoke void @_ZN2cv5errorEiRKNSt7__cxx1112basic_stringIcSt11char_traitsIcESaIcEEEPKcS9_i(i32 noundef -206, ptr noundef nonnull align 8 dereferenceable(32) %4, ptr noundef nonnull @__func__.cvReleaseSparseMat, ptr noundef nonnull @.str.1, i32 noundef 590) #13
          to label %28 unwind label %31

28:                                               ; preds = %27
  unreachable

29:                                               ; preds = %26
  %30 = landingpad { ptr, i32 }
          cleanup
  br label %_ZNSt7__cxx1112basic_stringIcSt11char_traitsIcESaIcEED2Ev.exit23

31:                                               ; preds = %27
  %32 = landingpad { ptr, i32 }
          cleanup
  %33 = load ptr, ptr %4, align 8, !tbaa !3
  %34 = getelementptr inbounds nuw i8, ptr %4, i64 16
  %35 = icmp eq ptr %33, %34
  br i1 %35, label %_ZNKSt7__cxx1112basic_stringIcSt11char_traitsIcESaIcEE11_M_is_localEv.exit.thread.i.i22, label %_ZNKSt7__cxx1112basic_stringIcSt11char_traitsIcESaIcEE11_M_is_localEv.exit.i.i21

_ZNKSt7__cxx1112basic_stringIcSt11char_traitsIcESaIcEE11_M_is_localEv.exit.thread.i.i22: ; preds = %31
  %36 = getelementptr inbounds nuw i8, ptr %4, i64 8
  %37 = load i64, ptr %36, align 8, !tbaa !11
  %38 = icmp ult i64 %37, 16
  call void @llvm.assume(i1 %38)
  br label %_ZNSt7__cxx1112basic_stringIcSt11char_traitsIcESaIcEED2Ev.exit23

_ZNKSt7__cxx1112basic_stringIcSt11char_traitsIcESaIcEE11_M_is_localEv.exit.i.i21: ; preds = %31
  call void @_ZdlPv(ptr noundef %33) #14
  br label %_ZNSt7__cxx1112basic_stringIcSt11char_traitsIcESaIcEED2Ev.exit23

_ZNSt7__cxx1112basic_stringIcSt11char_traitsIcESaIcEED2Ev.exit23: ; preds = %_ZNKSt7__cxx1112basic_stringIcSt11char_traitsIcESaIcEE11_M_is_localEv.exit.i.i21, %_ZNKSt7__cxx1112basic_stringIcSt11char_traitsIcESaIcEE11_M_is_localEv.exit.thread.i.i22, %29
  %.pn18 = phi { ptr, i32 } [ %30, %29 ], [ %32, %_ZNKSt7__cxx1112basic_stringIcSt11char_traitsIcESaIcEE11_M_is_localEv.exit.thread.i.i22 ], [ %32, %_ZNKSt7__cxx1112basic_stringIcSt11char_traitsIcESaIcEE11_M_is_localEv.exit.i.i21 ]
  call void @llvm.lifetime.end.p0(i64 1, ptr nonnull %5) #12
  call void @llvm.lifetime.end.p0(i64 32, ptr nonnull %4) #12
  br label %47

39:                                               ; preds = %22
  store ptr null, ptr %0, align 8, !tbaa !92
  call void @llvm.lifetime.start.p0(i64 8, ptr nonnull %6) #12
  %40 = getelementptr inbounds nuw i8, ptr %21, i64 24
  %41 = load ptr, ptr %40, align 8, !tbaa !89
  %42 = getelementptr inbounds nuw i8, ptr %41, i64 72
  %43 = load ptr, ptr %42, align 8, !tbaa !94
  store ptr %43, ptr %6, align 8, !tbaa !100
  call void @cvReleaseMemStorage(ptr noundef nonnull %6)
  %44 = getelementptr inbounds nuw i8, ptr %21, i64 32
  %45 = load ptr, ptr %44, align 8, !tbaa !91
  call void @cvFree_(ptr noundef %45)
  store ptr null, ptr %44, align 8, !tbaa !91
  call void @cvFree_(ptr noundef nonnull %21)
  call void @llvm.lifetime.end.p0(i64 8, ptr nonnull %6) #12
  br label %46

46:                                               ; preds = %39, %20
  ret void

47:                                               ; preds = %_ZNSt7__cxx1112basic_stringIcSt11char_traitsIcESaIcEED2Ev.exit23, %_ZNSt7__cxx1112basic_stringIcSt11char_traitsIcESaIcEED2Ev.exit
  %.pn18.pn = phi { ptr, i32 } [ %.pn18, %_ZNSt7__cxx1112basic_stringIcSt11char_traitsIcESaIcEED2Ev.exit23 ], [ %.pn, %_ZNSt7__cxx1112basic_stringIcSt11char_traitsIcESaIcEED2Ev.exit ]
  resume { ptr, i32 } %.pn18.pn
}